target datalayout = "e-m:e-p270:32:32-p271:32:32-p272:64:64-i64:64-i128:128-f80:128-n8:16:32:64-S128"
target triple = "x86_64-pc-linux-gnu"

%struct.AVCodecContext = type { ptr, i32, i32, ptr, i32, i32, ptr, ptr, ptr, i64, i32, i32, ptr, i32, %struct.AVRational, %struct.AVRational, %struct.AVRational, i32, i32, i32, i32, i32, %struct.AVRational, i32, i32, i32, i32, i32, i32, i32, i32, i32, i32, i32, ptr, ptr, i32, float, float, float, float, float, float, float, float, float, i32, i32, i32, i32, i32, i32, i32, i32, i32, i32, i32, i32, ptr, ptr, ptr, i32, i32, i32, i32, i32, i32, i32, i32, i32, i32, %struct.AVChannelLayout, i32, i32, i32, i32, i32, i32, i32, i32, ptr, i32, i32, i32, float, float, i32, i32, i32, i32, i32, ptr, i64, i64, float, float, i32, i32, ptr, ptr, i32, i32, i32, i32, i32, ptr, ptr, ptr, ptr, i32, i32, [8 x i64], i32, i32, i32, i32, i32, i32, i32, ptr, ptr, i32, i32, i32, i32, i32, i32, i32, i32, i32, i32, ptr, ptr, i32, i32, ptr, ptr, ptr, ptr, i32, i32, i64, i32, i32, i64, ptr, i64, ptr, i32, ptr, i32 }
%struct.AVRational = type { i32, i32 }
%struct.AVChannelLayout = type { i32, i32, %union.anon.1, ptr }
%union.anon.1 = type { i64 }
%struct.PhotoCDContext = type { ptr, i32, %struct.GetByteContext, i32, i32, i32, i32, [256 x i8], [256 x i16], [256 x i8], [3 x %struct.VLC] }
%struct.GetByteContext = type { ptr, ptr, ptr }
%struct.VLC = type { i32, ptr, i32, i32 }

; Function Attrs: alwaysinline nounwind willreturn memory(none) uwtable
define internal zeroext i16 @av_bswap16(i16 noundef zeroext %0) #5 {
  %2 = alloca i16, align 2
  store i16 %0, ptr %2, align 2, !tbaa !86
  %3 = load i16, ptr %2, align 2, !tbaa !86
  %4 = zext i16 %3 to i32
  %5 = ashr i32 %4, 8
  %6 = load i16, ptr %2, align 2, !tbaa !86
  %7 = zext i16 %6 to i32
  %8 = shl i32 %7, 8
  %9 = or i32 %5, %8
  %10 = trunc i32 %9 to i16
  store i16 %10, ptr %2, align 2, !tbaa !86
  %11 = load i16, ptr %2, align 2, !tbaa !86
  ret i16 %11
}

; Function Attrs: alwaysinline nounwind uwtable
define internal i32 @bytestream_get_be16(ptr noundef %0) #6 {
  %2 = alloca ptr, align 8
  store ptr %0, ptr %2, align 8, !tbaa !96
  %3 = load ptr, ptr %2, align 8, !tbaa !96
  %4 = load ptr, ptr %3, align 8, !tbaa !43
  %5 = getelementptr inbounds i8, ptr %4, i64 2
  store ptr %5, ptr %3, align 8, !tbaa !43
  %6 = load ptr, ptr %2, align 8, !tbaa !96
  %7 = load ptr, ptr %6, align 8, !tbaa !43
  %8 = getelementptr inbounds i8, ptr %7, i64 -2
  %9 = load i16, ptr %8, align 1, !tbaa !47
  %10 = call zeroext i16 @av_bswap16(i16 noundef zeroext %9) #14
  %11 = zext i16 %10 to i32
  ret i32 %11
}

; Function Attrs: alwaysinline nounwind uwtable
define internal i32 @bytestream_get_byte(ptr noundef %0) #6 {
  %2 = alloca ptr, align 8
  store ptr %0, ptr %2, align 8, !tbaa !96
  %3 = load ptr, ptr %2, align 8, !tbaa !96
  %4 = load ptr, ptr %3, align 8, !tbaa !43
  %5 = getelementptr inbounds i8, ptr %4, i64 1
  store ptr %5, ptr %3, align 8, !tbaa !43
  %6 = load ptr, ptr %2, align 8, !tbaa !96
  %7 = load ptr, ptr %6, align 8, !tbaa !43
  %8 = getelementptr inbounds i8, ptr %7, i64 -1
  %9 = getelementptr inbounds i8, ptr %8, i64 0
  %10 = load i8, ptr %9, align 1, !tbaa !47
  %11 = zext i8 %10 to i32
  ret i32 %11
}

; Function Attrs: alwaysinline nounwind willreturn memory(none) uwtable
define internal i32 @av_clip_c(i32 noundef %0, i32 noundef %1, i32 noundef %2) #5 {
  %4 = alloca i32, align 4
  %5 = alloca i32, align 4
  %6 = alloca i32, align 4
  %7 = alloca i32, align 4
  store i32 %0, ptr %5, align 4, !tbaa !58
  store i32 %1, ptr %6, align 4, !tbaa !58
  store i32 %2, ptr %7, align 4, !tbaa !58
  %8 = load i32, ptr %5, align 4, !tbaa !58
  %9 = load i32, ptr %6, align 4, !tbaa !58
  %10 = icmp slt i32 %8, %9
  br i1 %10, label %11, label %13

11:                                               ; preds = %3
  %12 = load i32, ptr %6, align 4, !tbaa !58
  store i32 %12, ptr %4, align 4
  br label %21

13:                                               ; preds = %3
  %14 = load i32, ptr %5, align 4, !tbaa !58
  %15 = load i32, ptr %7, align 4, !tbaa !58
  %16 = icmp sgt i32 %14, %15
  br i1 %16, label %17, label %19

17:                                               ; preds = %13
  %18 = load i32, ptr %7, align 4, !tbaa !58
  store i32 %18, ptr %4, align 4
  br label %21

19:                                               ; preds = %13
  %20 = load i32, ptr %5, align 4, !tbaa !58
  store i32 %20, ptr %4, align 4
  br label %21

21:                                               ; preds = %19, %17, %11
  %22 = load i32, ptr %4, align 4
  ret i32 %22
}

; Function Attrs: alwaysinline nounwind uwtable
define internal i32 @bytestream2_tell(ptr noundef %0) #6 {
  %2 = alloca ptr, align 8
  store ptr %0, ptr %2, align 8, !tbaa !44
  %3 = load ptr, ptr %2, align 8, !tbaa !44
  %4 = getelementptr inbounds nuw %struct.GetByteContext, ptr %3, i32 0, i32 0
  %5 = load ptr, ptr %4, align 8, !tbaa !71
  %6 = load ptr, ptr %2, align 8, !tbaa !44
  %7 = getelementptr inbounds nuw %struct.GetByteContext, ptr %6, i32 0, i32 2
  %8 = load ptr, ptr %7, align 8, !tbaa !72
  %9 = ptrtoint ptr %5 to i64
  %10 = ptrtoint ptr %8 to i64
  %11 = sub i64 %9, %10
  %12 = trunc i64 %11 to i32
  ret i32 %12
}

; Function Attrs: alwaysinline nounwind uwtable
define internal i32 @bytestream2_get_be16u(ptr noundef %0) #6 {
  %2 = alloca ptr, align 8
  store ptr %0, ptr %2, align 8, !tbaa !44
  %3 = load ptr, ptr %2, align 8, !tbaa !44
  %4 = getelementptr inbounds nuw %struct.GetByteContext, ptr %3, i32 0, i32 0
  %5 = call i32 @bytestream_get_be16(ptr noundef %4)
  ret i32 %5
}

; Function Attrs: alwaysinline nounwind uwtable
define internal i32 @bytestream2_get_byteu(ptr noundef %0) #6 {
  %2 = alloca ptr, align 8
  store ptr %0, ptr %2, align 8, !tbaa !44
  %3 = load ptr, ptr %2, align 8, !tbaa !44
  %4 = getelementptr inbounds nuw %struct.GetByteContext, ptr %3, i32 0, i32 0
  %5 = call i32 @bytestream_get_byte(ptr noundef %4)
  ret i32 %5
}

; Function Attrs: alwaysinline nounwind uwtable
define internal i32 @bytestream2_get_bytes_left(ptr noundef %0) #6 {
  %2 = alloca ptr, align 8
  store ptr %0, ptr %2, align 8, !tbaa !44
  %3 = load ptr, ptr %2, align 8, !tbaa !44
  %4 = getelementptr inbounds nuw %struct.GetByteContext, ptr %3, i32 0, i32 1
  %5 = load ptr, ptr %4, align 8, !tbaa !73
  %6 = load ptr, ptr %2, align 8, !tbaa !44
  %7 = getelementptr inbounds nuw %struct.GetByteContext, ptr %6, i32 0, i32 0
  %8 = load ptr, ptr %7, align 8, !tbaa !71
  %9 = ptrtoint ptr %5 to i64
  %10 = ptrtoint ptr %8 to i64
  %11 = sub i64 %9, %10
  %12 = trunc i64 %11 to i32
  ret i32 %12
}

; Function Attrs: alwaysinline nounwind uwtable
define internal i32 @bytestream2_get_byte(ptr noundef %0) #6 {
  %2 = alloca i32, align 4
  %3 = alloca ptr, align 8
  store ptr %0, ptr %3, align 8, !tbaa !44
  %4 = load ptr, ptr %3, align 8, !tbaa !44
  %5 = getelementptr inbounds nuw %struct.GetByteContext, ptr %4, i32 0, i32 1
  %6 = load ptr, ptr %5, align 8, !tbaa !73
  %7 = load ptr, ptr %3, align 8, !tbaa !44
  %8 = getelementptr inbounds nuw %struct.GetByteContext, ptr %7, i32 0, i32 0
  %9 = load ptr, ptr %8, align 8, !tbaa !71
  %10 = ptrtoint ptr %6 to i64
  %11 = ptrtoint ptr %9 to i64
  %12 = sub i64 %10, %11
  %13 = icmp slt i64 %12, 1
  br i1 %13, label %14, label %20

14:                                               ; preds = %1
  %15 = load ptr, ptr %3, align 8, !tbaa !44
  %16 = getelementptr inbounds nuw %struct.GetByteContext, ptr %15, i32 0, i32 1
  %17 = load ptr, ptr %16, align 8, !tbaa !73
  %18 = load ptr, ptr %3, align 8, !tbaa !44
  %19 = getelementptr inbounds nuw %struct.GetByteContext, ptr %18, i32 0, i32 0
  store ptr %17, ptr %19, align 8, !tbaa !71
  store i32 0, ptr %2, align 4
  br label %23

20:                                               ; preds = %1
  %21 = load ptr, ptr %3, align 8, !tbaa !44
  %22 = call i32 @bytestream2_get_byteu(ptr noundef %21)
  store i32 %22, ptr %2, align 4
  br label %23

23:                                               ; preds = %20, %14
  %24 = load i32, ptr %2, align 4
  ret i32 %24
}

; Function Attrs: alwaysinline nounwind uwtable
define internal i32 @bytestream2_seek(ptr noundef %0, i32 noundef %1, i32 noundef %2) #6 {
  %4 = alloca i32, align 4
  %5 = alloca ptr, align 8
  %6 = alloca i32, align 4
  %7 = alloca i32, align 4
  store ptr %0, ptr %5, align 8, !tbaa !44
  store i32 %1, ptr %6, align 4, !tbaa !58
  store i32 %2, ptr %7, align 4, !tbaa !58
  %8 = load i32, ptr %7, align 4, !tbaa !58
  switch i32 %8, label %82 [
    i32 1, label %9
    i32 2, label %39
    i32 0, label %61
  ]

9:                                                ; preds = %3
  %10 = load i32, ptr %6, align 4, !tbaa !58
  %11 = load ptr, ptr %5, align 8, !tbaa !44
  %12 = getelementptr inbounds nuw %struct.GetByteContext, ptr %11, i32 0, i32 0
  %13 = load ptr, ptr %12, align 8, !tbaa !71
  %14 = load ptr, ptr %5, align 8, !tbaa !44
  %15 = getelementptr inbounds nuw %struct.GetByteContext, ptr %14, i32 0, i32 2
  %16 = load ptr, ptr %15, align 8, !tbaa !72
  %17 = ptrtoint ptr %13 to i64
  %18 = ptrtoint ptr %16 to i64
  %19 = sub i64 %17, %18
  %20 = sub nsw i64 0, %19
  %21 = trunc i64 %20 to i32
  %22 = load ptr, ptr %5, align 8, !tbaa !44
  %23 = getelementptr inbounds nuw %struct.GetByteContext, ptr %22, i32 0, i32 1
  %24 = load ptr, ptr %23, align 8, !tbaa !73
  %25 = load ptr, ptr %5, align 8, !tbaa !44
  %26 = getelementptr inbounds nuw %struct.GetByteContext, ptr %25, i32 0, i32 0
  %27 = load ptr, ptr %26, align 8, !tbaa !71
  %28 = ptrtoint ptr %24 to i64
  %29 = ptrtoint ptr %27 to i64
  %30 = sub i64 %28, %29
  %31 = trunc i64 %30 to i32
  %32 = call i32 @av_clip_c(i32 noundef %10, i32 noundef %21, i32 noundef %31) #14
  store i32 %32, ptr %6, align 4, !tbaa !58
  %33 = load i32, ptr %6, align 4, !tbaa !58
  %34 = load ptr, ptr %5, align 8, !tbaa !44
  %35 = getelementptr inbounds nuw %struct.GetByteContext, ptr %34, i32 0, i32 0
  %36 = load ptr, ptr %35, align 8, !tbaa !71
  %37 = sext i32 %33 to i64
  %38 = getelementptr inbounds i8, ptr %36, i64 %37
  store ptr %38, ptr %35, align 8, !tbaa !71
  br label %83

39:                                               ; preds = %3
  %40 = load i32, ptr %6, align 4, !tbaa !58
  %41 = load ptr, ptr %5, align 8, !tbaa !44
  %42 = getelementptr inbounds nuw %struct.GetByteContext, ptr %41, i32 0, i32 1
  %43 = load ptr, ptr %42, align 8, !tbaa !73
  %44 = load ptr, ptr %5, align 8, !tbaa !44
  %45 = getelementptr inbounds nuw %struct.GetByteContext, ptr %44, i32 0, i32 2
  %46 = load ptr, ptr %45, align 8, !tbaa !72
  %47 = ptrtoint ptr %43 to i64
  %48 = ptrtoint ptr %46 to i64
  %49 = sub i64 %47, %48
  %50 = sub nsw i64 0, %49
  %51 = trunc i64 %50 to i32
  %52 = call i32 @av_clip_c(i32 noundef %40, i32 noundef %51, i32 noundef 0) #14
  store i32 %52, ptr %6, align 4, !tbaa !58
  %53 = load ptr, ptr %5, align 8, !tbaa !44
  %54 = getelementptr inbounds nuw %struct.GetByteContext, ptr %53, i32 0, i32 1
  %55 = load ptr, ptr %54, align 8, !tbaa !73
  %56 = load i32, ptr %6, align 4, !tbaa !58
  %57 = sext i32 %56 to i64
  %58 = getelementptr inbounds i8, ptr %55, i64 %57
  %59 = load ptr, ptr %5, align 8, !tbaa !44
  %60 = getelementptr inbounds nuw %struct.GetByteContext, ptr %59, i32 0, i32 0
  store ptr %58, ptr %60, align 8, !tbaa !71
  br label %83

61:                                               ; preds = %3
  %62 = load i32, ptr %6, align 4, !tbaa !58
  %63 = load ptr, ptr %5, align 8, !tbaa !44
  %64 = getelementptr inbounds nuw %struct.GetByteContext, ptr %63, i32 0, i32 1
  %65 = load ptr, ptr %64, align 8, !tbaa !73
  %66 = load ptr, ptr %5, align 8, !tbaa !44
  %67 = getelementptr inbounds nuw %struct.GetByteContext, ptr %66, i32 0, i32 2
  %68 = load ptr, ptr %67, align 8, !tbaa !72
  %69 = ptrtoint ptr %65 to i64
  %70 = ptrtoint ptr %68 to i64
  %71 = sub i64 %69, %70
  %72 = trunc i64 %71 to i32
  %73 = call i32 @av_clip_c(i32 noundef %62, i32 noundef 0, i32 noundef %72) #14
  store i32 %73, ptr %6, align 4, !tbaa !58
  %74 = load ptr, ptr %5, align 8, !tbaa !44
  %75 = getelementptr inbounds nuw %struct.GetByteContext, ptr %74, i32 0, i32 2
  %76 = load ptr, ptr %75, align 8, !tbaa !72
  %77 = load i32, ptr %6, align 4, !tbaa !58
  %78 = sext i32 %77 to i64
  %79 = getelementptr inbounds i8, ptr %76, i64 %78
  %80 = load ptr, ptr %5, align 8, !tbaa !44
  %81 = getelementptr inbounds nuw %struct.GetByteContext, ptr %80, i32 0, i32 0
  store ptr %79, ptr %81, align 8, !tbaa !71
  br label %83

82:                                               ; preds = %3
  store i32 -22, ptr %4, align 4
  br label %86

83:                                               ; preds = %61, %39, %9
  %84 = load ptr, ptr %5, align 8, !tbaa !44
  %85 = call i32 @bytestream2_tell(ptr noundef %84)
  store i32 %85, ptr %4, align 4
  br label %86

86:                                               ; preds = %83, %82
  %87 = load i32, ptr %4, align 4
  ret i32 %87
}

; Function Attrs: noinline nounwind uwtable
define internal i32 @read_hufftable(ptr noundef %0, ptr noundef %1) #7 {
  %3 = alloca i32, align 4
  %4 = alloca ptr, align 8
  %5 = alloca ptr, align 8
  %6 = alloca ptr, align 8
  %7 = alloca ptr, align 8
  %8 = alloca i32, align 4
  %9 = alloca i32, align 4
  %10 = alloca i32, align 4
  %11 = alloca i32, align 4
  %12 = alloca i32, align 4
  %13 = alloca i32, align 4
  %14 = alloca i32, align 4
  %15 = alloca i32, align 4
  store ptr %0, ptr %4, align 8, !tbaa !4
  store ptr %1, ptr %5, align 8, !tbaa !84
  call void @llvm.lifetime.start.p0(i64 8, ptr %6) #12
  %16 = load ptr, ptr %4, align 8, !tbaa !4
  %17 = getelementptr inbounds nuw %struct.AVCodecContext, ptr %16, i32 0, i32 6
  %18 = load ptr, ptr %17, align 8, !tbaa !38
  store ptr %18, ptr %6, align 8, !tbaa !39
  call void @llvm.lifetime.start.p0(i64 8, ptr %7) #12
  %19 = load ptr, ptr %6, align 8, !tbaa !39
  %20 = getelementptr inbounds nuw %struct.PhotoCDContext, ptr %19, i32 0, i32 2
  store ptr %20, ptr %7, align 8, !tbaa !44
  call void @llvm.lifetime.start.p0(i64 4, ptr %8) #12
  %21 = load ptr, ptr %6, align 8, !tbaa !39
  %22 = getelementptr inbounds nuw %struct.PhotoCDContext, ptr %21, i32 0, i32 6
  %23 = load i32, ptr %22, align 4, !tbaa !65
  store i32 %23, ptr %8, align 4, !tbaa !58
  call void @llvm.lifetime.start.p0(i64 4, ptr %9) #12
  call void @llvm.lifetime.start.p0(i64 4, ptr %10) #12
  %24 = load ptr, ptr %7, align 8, !tbaa !44
  %25 = load i32, ptr %8, align 4, !tbaa !58
  %26 = call i32 @bytestream2_seek(ptr noundef %24, i32 noundef %25, i32 noundef 0)
  %27 = load ptr, ptr %7, align 8, !tbaa !44
  %28 = call i32 @bytestream2_get_byte(ptr noundef %27)
  %29 = add i32 %28, 1
  store i32 %29, ptr %9, align 4, !tbaa !58
  %30 = load ptr, ptr %7, align 8, !tbaa !44
  %31 = call i32 @bytestream2_get_bytes_left(ptr noundef %30)
  %32 = load i32, ptr %9, align 4, !tbaa !58
  %33 = mul nsw i32 %32, 4
  %34 = icmp slt i32 %31, %33
  br i1 %34, label %35, label %36

35:                                               ; preds = %2
  store i32 -1094995529, ptr %3, align 4
  store i32 1, ptr %11, align 4
  br label %105

36:                                               ; preds = %2
  call void @llvm.lifetime.start.p0(i64 4, ptr %12) #12
  store i32 0, ptr %12, align 4, !tbaa !58
  br label %37

37:                                               ; preds = %81, %36
  %38 = load i32, ptr %12, align 4, !tbaa !58
  %39 = load i32, ptr %9, align 4, !tbaa !58
  %40 = icmp slt i32 %38, %39
  br i1 %40, label %42, label %41

41:                                               ; preds = %37
  store i32 2, ptr %11, align 4
  br label %84

42:                                               ; preds = %37
  call void @llvm.lifetime.start.p0(i64 4, ptr %13) #12
  %43 = load ptr, ptr %7, align 8, !tbaa !44
  %44 = call i32 @bytestream2_get_byteu(ptr noundef %43)
  %45 = add i32 %44, 1
  store i32 %45, ptr %13, align 4, !tbaa !58
  call void @llvm.lifetime.start.p0(i64 4, ptr %14) #12
  %46 = load ptr, ptr %7, align 8, !tbaa !44
  %47 = call i32 @bytestream2_get_be16u(ptr noundef %46)
  store i32 %47, ptr %14, align 4, !tbaa !58
  call void @llvm.lifetime.start.p0(i64 4, ptr %15) #12
  %48 = load ptr, ptr %7, align 8, !tbaa !44
  %49 = call i32 @bytestream2_get_byteu(ptr noundef %48)
  store i32 %49, ptr %15, align 4, !tbaa !58
  %50 = load i32, ptr %13, align 4, !tbaa !58
  %51 = icmp sgt i32 %50, 16
  br i1 %51, label %52, label %53

52:                                               ; preds = %42
  store i32 -1094995529, ptr %3, align 4
  store i32 1, ptr %11, align 4
  br label %78

53:                                               ; preds = %42
  %54 = load i32, ptr %13, align 4, !tbaa !58
  %55 = trunc i32 %54 to i8
  %56 = load ptr, ptr %6, align 8, !tbaa !39
  %57 = getelementptr inbounds nuw %struct.PhotoCDContext, ptr %56, i32 0, i32 7
  %58 = load i32, ptr %12, align 4, !tbaa !58
  %59 = sext i32 %58 to i64
  %60 = getelementptr inbounds [256 x i8], ptr %57, i64 0, i64 %59
  store i8 %55, ptr %60, align 1, !tbaa !47
  %61 = load i32, ptr %14, align 4, !tbaa !58
  %62 = load i32, ptr %13, align 4, !tbaa !58
  %63 = sub nsw i32 16, %62
  %64 = ashr i32 %61, %63
  %65 = trunc i32 %64 to i16
  %66 = load ptr, ptr %6, align 8, !tbaa !39
  %67 = getelementptr inbounds nuw %struct.PhotoCDContext, ptr %66, i32 0, i32 8
  %68 = load i32, ptr %12, align 4, !tbaa !58
  %69 = sext i32 %68 to i64
  %70 = getelementptr inbounds [256 x i16], ptr %67, i64 0, i64 %69
  store i16 %65, ptr %70, align 2, !tbaa !86
  %71 = load i32, ptr %15, align 4, !tbaa !58
  %72 = trunc i32 %71 to i8
  %73 = load ptr, ptr %6, align 8, !tbaa !39
  %74 = getelementptr inbounds nuw %struct.PhotoCDContext, ptr %73, i32 0, i32 9
  %75 = load i32, ptr %12, align 4, !tbaa !58
  %76 = sext i32 %75 to i64
  %77 = getelementptr inbounds [256 x i8], ptr %74, i64 0, i64 %76
  store i8 %72, ptr %77, align 1, !tbaa !47
  store i32 0, ptr %11, align 4
  br label %78

78:                                               ; preds = %53, %52
  call void @llvm.lifetime.end.p0(i64 4, ptr %15) #12
  call void @llvm.lifetime.end.p0(i64 4, ptr %14) #12
  call void @llvm.lifetime.end.p0(i64 4, ptr %13) #12
  %79 = load i32, ptr %11, align 4
  switch i32 %79, label %84 [
    i32 0, label %80
  ]

80:                                               ; preds = %78
  br label %81

81:                                               ; preds = %80
  %82 = load i32, ptr %12, align 4, !tbaa !58
  %83 = add nsw i32 %82, 1
  store i32 %83, ptr %12, align 4, !tbaa !58
  br label %37, !llvm.loop !87

84:                                               ; preds = %78, %41
  call void @llvm.lifetime.end.p0(i64 4, ptr %12) #12
  %85 = load i32, ptr %11, align 4
  switch i32 %85, label %105 [
    i32 2, label %86
  ]

86:                                               ; preds = %84
  %87 = load ptr, ptr %5, align 8, !tbaa !84
  call void @ff_vlc_free(ptr noundef %87)
  %88 = load ptr, ptr %5, align 8, !tbaa !84
  %89 = load i32, ptr %9, align 4, !tbaa !58
  %90 = load ptr, ptr %6, align 8, !tbaa !39
  %91 = getelementptr inbounds nuw %struct.PhotoCDContext, ptr %90, i32 0, i32 7
  %92 = getelementptr inbounds [256 x i8], ptr %91, i64 0, i64 0
  %93 = load ptr, ptr %6, align 8, !tbaa !39
  %94 = getelementptr inbounds nuw %struct.PhotoCDContext, ptr %93, i32 0, i32 8
  %95 = getelementptr inbounds [256 x i16], ptr %94, i64 0, i64 0
  %96 = load ptr, ptr %6, align 8, !tbaa !39
  %97 = getelementptr inbounds nuw %struct.PhotoCDContext, ptr %96, i32 0, i32 9
  %98 = getelementptr inbounds [256 x i8], ptr %97, i64 0, i64 0
  %99 = call i32 @ff_vlc_init_sparse(ptr noundef %88, i32 noundef 12, i32 noundef %89, ptr noundef %92, i32 noundef 1, i32 noundef 1, ptr noundef %95, i32 noundef 2, i32 noundef 2, ptr noundef %98, i32 noundef 1, i32 noundef 1, i32 noundef 0)
  store i32 %99, ptr %10, align 4, !tbaa !58
  %100 = load ptr, ptr %7, align 8, !tbaa !44
  %101 = call i32 @bytestream2_tell(ptr noundef %100)
  %102 = load ptr, ptr %6, align 8, !tbaa !39
  %103 = getelementptr inbounds nuw %struct.PhotoCDContext, ptr %102, i32 0, i32 6
  store i32 %101, ptr %103, align 4, !tbaa !65
  %104 = load i32, ptr %10, align 4, !tbaa !58
  store i32 %104, ptr %3, align 4
  store i32 1, ptr %11, align 4
  br label %105

105:                                              ; preds = %86, %84, %35
  call void @llvm.lifetime.end.p0(i64 4, ptr %10) #12
  call void @llvm.lifetime.end.p0(i64 4, ptr %9) #12
  call void @llvm.lifetime.end.p0(i64 4, ptr %8) #12
  call void @llvm.lifetime.end.p0(i64 8, ptr %7) #12
  call void @llvm.lifetime.end.p0(i64 8, ptr %6) #12
  %106 = load i32, ptr %3, align 4
  ret i32 %106
}