; Function Attrs: noinline nounwind uwtable
define internal fastcc i32 @read_hufftable(ptr initializes((16, 24)) %.32.val, ptr noundef %0) unnamed_addr #6 {
  %2 = getelementptr inbounds nuw i8, ptr %.32.val, i64 16
  %3 = getelementptr inbounds nuw i8, ptr %.32.val, i64 52
  %4 = load i32, ptr %3, align 4, !tbaa !57
  %5 = getelementptr inbounds nuw i8, ptr %.32.val, i64 24
  %6 = load ptr, ptr %5, align 8, !tbaa !49
  %7 = getelementptr inbounds nuw i8, ptr %.32.val, i64 32
  %8 = load ptr, ptr %7, align 8, !tbaa !48
  %9 = ptrtoint ptr %6 to i64
  %10 = ptrtoint ptr %8 to i64
  %11 = sub i64 %9, %10
  %12 = trunc i64 %11 to i32
  %13 = icmp slt i32 %4, 0
  %..i.i = tail call i32 @llvm.smin.i32(i32 %4, i32 %12)
  %.0.i.i = select i1 %13, i32 0, i32 %..i.i
  %14 = sext i32 %.0.i.i to i64
  %15 = getelementptr inbounds i8, ptr %8, i64 %14
  %16 = ptrtoint ptr %15 to i64
  %17 = sub i64 %9, %16
  %18 = icmp slt i64 %17, 1
  br i1 %18, label %19, label %20

19:                                               ; preds = %1
  store ptr %6, ptr %2, align 8, !tbaa !47
  br label %bytestream2_get_byte.exit

20:                                               ; preds = %1
  %21 = getelementptr inbounds nuw i8, ptr %15, i64 1
  store ptr %21, ptr %2, align 8, !tbaa !50
  %22 = load i8, ptr %15, align 1, !tbaa !35
  %23 = zext i8 %22 to i32
  %.pre = ptrtoint ptr %21 to i64
  %24 = add nuw nsw i32 %23, 1
  br label %bytestream2_get_byte.exit

bytestream2_get_byte.exit:                        ; preds = %19, %20
  %.pre-phi = phi i64 [ %9, %19 ], [ %.pre, %20 ]
  %.promoted = phi ptr [ %6, %19 ], [ %21, %20 ]
  %.0.i = phi i32 [ 1, %19 ], [ %24, %20 ]
  %25 = sub i64 %9, %.pre-phi
  %26 = trunc i64 %25 to i32
  %27 = shl nuw nsw i32 %.0.i, 2
  %28 = icmp sgt i32 %27, %26
  br i1 %28, label %.critedge, label %.preheader

.preheader:                                       ; preds = %bytestream2_get_byte.exit
  %29 = getelementptr inbounds nuw i8, ptr %.32.val, i64 56
  %30 = getelementptr inbounds nuw i8, ptr %.32.val, i64 312
  %31 = getelementptr inbounds nuw i8, ptr %.32.val, i64 824
  %wide.trip.count = zext nneg i32 %.0.i to i64
  br label %32

32:                                               ; preds = %.preheader, %40
  %indvars.iv = phi i64 [ 0, %.preheader ], [ %indvars.iv.next, %40 ]
  %33 = phi ptr [ %.promoted, %.preheader ], [ %38, %40 ]
  %34 = getelementptr inbounds nuw i8, ptr %33, i64 1
  store ptr %34, ptr %2, align 8, !tbaa !50
  %35 = load i8, ptr %33, align 1, !tbaa !35
  %36 = getelementptr inbounds nuw i8, ptr %33, i64 3
  store ptr %36, ptr %2, align 8, !tbaa !50
  %37 = load i16, ptr %34, align 1, !tbaa !35
  %38 = getelementptr inbounds nuw i8, ptr %33, i64 4
  store ptr %38, ptr %2, align 8, !tbaa !50
  %39 = icmp ult i8 %35, 16
  br i1 %39, label %40, label %.critedge

40:                                               ; preds = %32
  %41 = load i8, ptr %36, align 1, !tbaa !35
  %42 = tail call i16 @llvm.bswap.i16(i16 %37)
  %43 = add nuw nsw i8 %35, 1
  %44 = getelementptr inbounds nuw [256 x i8], ptr %29, i64 0, i64 %indvars.iv
  store i8 %43, ptr %44, align 1, !tbaa !35
  %narrow = sub nuw nsw i8 15, %35
  %45 = zext nneg i8 %narrow to i16
  %46 = lshr i16 %42, %45
  %47 = getelementptr inbounds nuw [256 x i16], ptr %30, i64 0, i64 %indvars.iv
  store i16 %46, ptr %47, align 2, !tbaa !73
  %48 = getelementptr inbounds nuw [256 x i8], ptr %31, i64 0, i64 %indvars.iv
  store i8 %41, ptr %48, align 1, !tbaa !35
  %indvars.iv.next = add nuw nsw i64 %indvars.iv, 1
  %exitcond.not = icmp eq i64 %indvars.iv.next, %wide.trip.count
  br i1 %exitcond.not, label %.critedge41, label %32, !llvm.loop !74

.critedge41:                                      ; preds = %40
  tail call void @ff_vlc_free(ptr noundef %0) #11
  %49 = tail call i32 @ff_vlc_init_sparse(ptr noundef %0, i32 noundef 12, i32 noundef %.0.i, ptr noundef nonnull %29, i32 noundef 1, i32 noundef 1, ptr noundef nonnull %30, i32 noundef 2, i32 noundef 2, ptr noundef nonnull %31, i32 noundef 1, i32 noundef 1, i32 noundef 0) #11
  %50 = load ptr, ptr %2, align 8, !tbaa !47
  %51 = load ptr, ptr %7, align 8, !tbaa !48
  %52 = ptrtoint ptr %50 to i64
  %53 = ptrtoint ptr %51 to i64
  %54 = sub i64 %52, %53
  %55 = trunc i64 %54 to i32
  store i32 %55, ptr %3, align 4, !tbaa !57
  br label %.critedge

.critedge:                                        ; preds = %32, %bytestream2_get_byte.exit, %.critedge41
  %.0 = phi i32 [ %49, %.critedge41 ], [ -1094995529, %bytestream2_get_byte.exit ], [ -1094995529, %32 ]
  ret i32 %.0
}